target datalayout = "e-m:e-p270:32:32-p271:32:32-p272:64:64-i64:64-i128:128-f80:128-n8:16:32:64-S128"
target triple = "x86_64-pc-linux-gnu"

%struct.ident_t = type { i32, i32, i32, i32, ptr }
%"class.ncnn::Mat" = type { ptr, ptr, i64, i32, ptr, i32, i32, i32, i32, i32, i64 }
%"class.ncnn::Option" = type { i8, i32, ptr, ptr, i32, i8, i8, i8, i8, i8, i8, i8, i8, i8, i8, i8, i8, i8, i8, i8, i8, i8, i8, i8, i8, i32, i8, i8, i8, i8, i8, i8, i8, i8, i8, i8, i8, i8 }

@2 = private unnamed_addr constant %struct.ident_t { i32 0, i32 2, i32 0, i32 22, ptr @0 }, align 8

; Function Attrs: alwaysinline mustprogress nounwind uwtable
define internal void @_ZN4ncnnL8fastFreeEPv(ptr noundef %0) #5 {
  %2 = alloca ptr, align 8
  store ptr %0, ptr %2, align 8, !tbaa !109
  %3 = load ptr, ptr %2, align 8, !tbaa !109
  %4 = icmp ne ptr %3, null
  br i1 %4, label %5, label %7

5:                                                ; preds = %1
  %6 = load ptr, ptr %2, align 8, !tbaa !109
  call void @free(ptr noundef %6) #14
  br label %7

7:                                                ; preds = %5, %1
  ret void
}

; Function Attrs: alwaysinline mustprogress uwtable
define linkonce_odr hidden void @_ZN4ncnn3Mat7releaseEv(ptr noundef nonnull align 8 dereferenceable(72) %0) #6 comdat align 2 {
  %2 = alloca ptr, align 8
  %3 = alloca i32, align 4
  %4 = alloca i32, align 4
  store ptr %0, ptr %2, align 8, !tbaa !73
  %5 = load ptr, ptr %2, align 8
  %6 = getelementptr inbounds nuw %"class.ncnn::Mat", ptr %5, i32 0, i32 1
  %7 = load ptr, ptr %6, align 8, !tbaa !111
  %8 = icmp ne ptr %7, null
  br i1 %8, label %9, label %32

9:                                                ; preds = %1
  %10 = getelementptr inbounds nuw %"class.ncnn::Mat", ptr %5, i32 0, i32 1
  %11 = load ptr, ptr %10, align 8, !tbaa !111
  store i32 -1, ptr %3, align 4, !tbaa !48
  %12 = load i32, ptr %3, align 4
  %13 = atomicrmw add ptr %11, i32 %12 acq_rel, align 4
  store i32 %13, ptr %4, align 4
  %14 = load i32, ptr %4, align 4, !tbaa !48
  %15 = icmp eq i32 %14, 1
  br i1 %15, label %16, label %32

16:                                               ; preds = %9
  %17 = getelementptr inbounds nuw %"class.ncnn::Mat", ptr %5, i32 0, i32 4
  %18 = load ptr, ptr %17, align 8, !tbaa !108
  %19 = icmp ne ptr %18, null
  br i1 %19, label %20, label %28

20:                                               ; preds = %16
  %21 = getelementptr inbounds nuw %"class.ncnn::Mat", ptr %5, i32 0, i32 4
  %22 = load ptr, ptr %21, align 8, !tbaa !108
  %23 = getelementptr inbounds nuw %"class.ncnn::Mat", ptr %5, i32 0, i32 0
  %24 = load ptr, ptr %23, align 8, !tbaa !106
  %25 = load ptr, ptr %22, align 8, !tbaa !9
  %26 = getelementptr inbounds ptr, ptr %25, i64 3
  %27 = load ptr, ptr %26, align 8
  call void %27(ptr noundef nonnull align 8 dereferenceable(8) %22, ptr noundef %24)
  br label %31

28:                                               ; preds = %16
  %29 = getelementptr inbounds nuw %"class.ncnn::Mat", ptr %5, i32 0, i32 0
  %30 = load ptr, ptr %29, align 8, !tbaa !106
  call void @_ZN4ncnnL8fastFreeEPv(ptr noundef %30)
  br label %31

31:                                               ; preds = %28, %20
  br label %32

32:                                               ; preds = %31, %9, %1
  %33 = getelementptr inbounds nuw %"class.ncnn::Mat", ptr %5, i32 0, i32 0
  store ptr null, ptr %33, align 8, !tbaa !106
  %34 = getelementptr inbounds nuw %"class.ncnn::Mat", ptr %5, i32 0, i32 2
  store i64 0, ptr %34, align 8, !tbaa !76
  %35 = getelementptr inbounds nuw %"class.ncnn::Mat", ptr %5, i32 0, i32 3
  store i32 0, ptr %35, align 8, !tbaa !75
  %36 = getelementptr inbounds nuw %"class.ncnn::Mat", ptr %5, i32 0, i32 5
  store i32 0, ptr %36, align 8, !tbaa !80
  %37 = getelementptr inbounds nuw %"class.ncnn::Mat", ptr %5, i32 0, i32 6
  store i32 0, ptr %37, align 4, !tbaa !64
  %38 = getelementptr inbounds nuw %"class.ncnn::Mat", ptr %5, i32 0, i32 7
  store i32 0, ptr %38, align 8, !tbaa !65
  %39 = getelementptr inbounds nuw %"class.ncnn::Mat", ptr %5, i32 0, i32 8
  store i32 0, ptr %39, align 4, !tbaa !107
  %40 = getelementptr inbounds nuw %"class.ncnn::Mat", ptr %5, i32 0, i32 9
  store i32 0, ptr %40, align 8, !tbaa !74
  %41 = getelementptr inbounds nuw %"class.ncnn::Mat", ptr %5, i32 0, i32 10
  store i64 0, ptr %41, align 8, !tbaa !81
  %42 = getelementptr inbounds nuw %"class.ncnn::Mat", ptr %5, i32 0, i32 1
  store ptr null, ptr %42, align 8, !tbaa !111
  ret void
}

; Function Attrs: alwaysinline mustprogress nounwind uwtable
define linkonce_odr hidden void @_ZN4ncnn3MatD2Ev(ptr noundef nonnull align 8 dereferenceable(72) %0) unnamed_addr #5 comdat align 2 personality ptr @__gxx_personality_v0 {
  %2 = alloca ptr, align 8
  store ptr %0, ptr %2, align 8, !tbaa !73
  %3 = load ptr, ptr %2, align 8
  invoke void @_ZN4ncnn3Mat7releaseEv(ptr noundef nonnull align 8 dereferenceable(72) %3)
          to label %4 unwind label %5

4:                                                ; preds = %1
  ret void

5:                                                ; preds = %1
  %6 = landingpad { ptr, i32 }
          catch ptr null
  %7 = extractvalue { ptr, i32 } %6, 0
  call void @__clang_call_terminate(ptr %7) #29
  unreachable
}

; Function Attrs: alwaysinline mustprogress uwtable
define linkonce_odr hidden void @_ZN4ncnn3MatC2EiiimPNS_9AllocatorE(ptr noundef nonnull align 8 dereferenceable(72) %0, i32 noundef %1, i32 noundef %2, i32 noundef %3, i64 noundef %4, ptr noundef %5) unnamed_addr #6 comdat align 2 {
  %7 = alloca ptr, align 8
  %8 = alloca i32, align 4
  %9 = alloca i32, align 4
  %10 = alloca i32, align 4
  %11 = alloca i64, align 8
  %12 = alloca ptr, align 8
  store ptr %0, ptr %7, align 8, !tbaa !73
  store i32 %1, ptr %8, align 4, !tbaa !48
  store i32 %2, ptr %9, align 4, !tbaa !48
  store i32 %3, ptr %10, align 4, !tbaa !48
  store i64 %4, ptr %11, align 8, !tbaa !84
  store ptr %5, ptr %12, align 8, !tbaa !110
  %13 = load ptr, ptr %7, align 8
  %14 = getelementptr inbounds nuw %"class.ncnn::Mat", ptr %13, i32 0, i32 0
  store ptr null, ptr %14, align 8, !tbaa !106
  %15 = getelementptr inbounds nuw %"class.ncnn::Mat", ptr %13, i32 0, i32 1
  store ptr null, ptr %15, align 8, !tbaa !111
  %16 = getelementptr inbounds nuw %"class.ncnn::Mat", ptr %13, i32 0, i32 2
  store i64 0, ptr %16, align 8, !tbaa !76
  %17 = getelementptr inbounds nuw %"class.ncnn::Mat", ptr %13, i32 0, i32 3
  store i32 0, ptr %17, align 8, !tbaa !75
  %18 = getelementptr inbounds nuw %"class.ncnn::Mat", ptr %13, i32 0, i32 4
  store ptr null, ptr %18, align 8, !tbaa !108
  %19 = getelementptr inbounds nuw %"class.ncnn::Mat", ptr %13, i32 0, i32 5
  store i32 0, ptr %19, align 8, !tbaa !80
  %20 = getelementptr inbounds nuw %"class.ncnn::Mat", ptr %13, i32 0, i32 6
  store i32 0, ptr %20, align 4, !tbaa !64
  %21 = getelementptr inbounds nuw %"class.ncnn::Mat", ptr %13, i32 0, i32 7
  store i32 0, ptr %21, align 8, !tbaa !65
  %22 = getelementptr inbounds nuw %"class.ncnn::Mat", ptr %13, i32 0, i32 8
  store i32 0, ptr %22, align 4, !tbaa !107
  %23 = getelementptr inbounds nuw %"class.ncnn::Mat", ptr %13, i32 0, i32 9
  store i32 0, ptr %23, align 8, !tbaa !74
  %24 = getelementptr inbounds nuw %"class.ncnn::Mat", ptr %13, i32 0, i32 10
  store i64 0, ptr %24, align 8, !tbaa !81
  %25 = load i32, ptr %8, align 4, !tbaa !48
  %26 = load i32, ptr %9, align 4, !tbaa !48
  %27 = load i32, ptr %10, align 4, !tbaa !48
  %28 = load i64, ptr %11, align 8, !tbaa !84
  %29 = load ptr, ptr %12, align 8, !tbaa !110
  call void @_ZN4ncnn3Mat6createEiiimPNS_9AllocatorE(ptr noundef nonnull align 8 dereferenceable(72) %13, i32 noundef %25, i32 noundef %26, i32 noundef %27, i64 noundef %28, ptr noundef %29)
  ret void
}

; Function Attrs: mustprogress uwtable
define internal void @_ZN4ncnnL37conv3x3s1_winograd23_transform_kernelERKNS_3MatERS0_iiRKNS_6OptionE(ptr noundef nonnull align 8 dereferenceable(72) %0, ptr noundef nonnull align 8 dereferenceable(72) %1, i32 noundef %2, i32 noundef %3, ptr noundef nonnull align 8 dereferenceable(64) %4) #2 personality ptr @__gxx_personality_v0 {
  %6 = alloca ptr, align 8
  %7 = alloca ptr, align 8
  %8 = alloca i32, align 4
  %9 = alloca i32, align 4
  %10 = alloca ptr, align 8
  %11 = alloca i32, align 4
  %12 = alloca i32, align 4
  %13 = alloca i32, align 4
  %14 = alloca i32, align 4
  %15 = alloca i32, align 4
  %16 = alloca i32, align 4
  %17 = alloca i32, align 4
  %18 = alloca %"class.ncnn::Mat", align 8
  %19 = alloca ptr, align 8
  %20 = alloca i32, align 4
  %21 = call i32 @__kmpc_global_thread_num(ptr @2)
  store ptr %0, ptr %6, align 8, !tbaa !73
  store ptr %1, ptr %7, align 8, !tbaa !73
  store i32 %2, ptr %8, align 4, !tbaa !48
  store i32 %3, ptr %9, align 4, !tbaa !48
  store ptr %4, ptr %10, align 8, !tbaa !11
  call void @llvm.lifetime.start.p0(i64 4, ptr %11) #14
  %22 = load i32, ptr %9, align 4, !tbaa !48
  store i32 %22, ptr %11, align 4, !tbaa !48
  call void @llvm.lifetime.start.p0(i64 4, ptr %12) #14
  %23 = load i32, ptr %8, align 4, !tbaa !48
  store i32 %23, ptr %12, align 4, !tbaa !48
  call void @llvm.lifetime.start.p0(i64 4, ptr %13) #14
  store i32 16, ptr %13, align 4, !tbaa !48
  call void @llvm.lifetime.start.p0(i64 4, ptr %14) #14
  call void @llvm.lifetime.start.p0(i64 4, ptr %15) #14
  call void @llvm.lifetime.start.p0(i64 4, ptr %16) #14
  %24 = load i32, ptr %11, align 4, !tbaa !48
  %25 = load i32, ptr %12, align 4, !tbaa !48
  %26 = load ptr, ptr %10, align 8, !tbaa !11
  %27 = getelementptr inbounds nuw %"class.ncnn::Option", ptr %26, i32 0, i32 1
  %28 = load i32, ptr %27, align 4, !tbaa !39
  call void @_ZN4ncnnL20get_optimal_tile_mnkEiiiRiS0_S0_i(i32 noundef %24, i32 noundef 0, i32 noundef %25, ptr noundef nonnull align 4 dereferenceable(4) %14, ptr noundef nonnull align 4 dereferenceable(4) %15, ptr noundef nonnull align 4 dereferenceable(4) %16, i32 noundef %28)
  call void @llvm.lifetime.start.p0(i64 4, ptr %17) #14
  %29 = load i32, ptr %11, align 4, !tbaa !48
  %30 = load i32, ptr %14, align 4, !tbaa !48
  %31 = add nsw i32 %29, %30
  %32 = sub nsw i32 %31, 1
  %33 = load i32, ptr %14, align 4, !tbaa !48
  %34 = sdiv i32 %32, %33
  store i32 %34, ptr %17, align 4, !tbaa !48
  call void @llvm.lifetime.start.p0(i64 72, ptr %18) #14
  %35 = load i32, ptr %14, align 4, !tbaa !48
  %36 = mul nsw i32 16, %35
  %37 = load i32, ptr %16, align 4, !tbaa !48
  %38 = mul nsw i32 %36, %37
  %39 = load ptr, ptr %10, align 8, !tbaa !11
  %40 = getelementptr inbounds nuw %"class.ncnn::Option", ptr %39, i32 0, i32 1
  %41 = load i32, ptr %40, align 4, !tbaa !39
  call void @_ZN4ncnn3MatC2EiiimPNS_9AllocatorE(ptr noundef nonnull align 8 dereferenceable(72) %18, i32 noundef %38, i32 noundef 1, i32 noundef %41, i64 noundef 4, ptr noundef null)
  %42 = load ptr, ptr %7, align 8, !tbaa !73
  %43 = load i32, ptr %16, align 4, !tbaa !48
  %44 = load i32, ptr %14, align 4, !tbaa !48
  %45 = mul nsw i32 %43, %44
  %46 = load i32, ptr %12, align 4, !tbaa !48
  %47 = load i32, ptr %16, align 4, !tbaa !48
  %48 = add nsw i32 %46, %47
  %49 = sub nsw i32 %48, 1
  %50 = load i32, ptr %16, align 4, !tbaa !48
  %51 = sdiv i32 %49, %50
  %52 = load i32, ptr %11, align 4, !tbaa !48
  %53 = load i32, ptr %14, align 4, !tbaa !48
  %54 = add nsw i32 %52, %53
  %55 = sub nsw i32 %54, 1
  %56 = load i32, ptr %14, align 4, !tbaa !48
  %57 = sdiv i32 %55, %56
  invoke void @_ZN4ncnn3Mat6createEiiiimPNS_9AllocatorE(ptr noundef nonnull align 8 dereferenceable(72) %42, i32 noundef %45, i32 noundef 16, i32 noundef %51, i32 noundef %57, i64 noundef 4, ptr noundef null)
          to label %58 unwind label %64

58:                                               ; preds = %5
  %59 = load ptr, ptr %10, align 8, !tbaa !11
  %60 = getelementptr inbounds nuw %"class.ncnn::Option", ptr %59, i32 0, i32 1
  %61 = load i32, ptr %60, align 4, !tbaa !39
  call void @__kmpc_push_num_threads(ptr @2, i32 %21, i32 %61)
  %62 = load ptr, ptr %6, align 8, !tbaa !73
  %63 = load ptr, ptr %7, align 8, !tbaa !73
  call void (ptr, i32, ptr, ...) @__kmpc_fork_call(ptr @2, i32 9, ptr @_ZN4ncnnL37conv3x3s1_winograd23_transform_kernelERKNS_3MatERS0_iiRKNS_6OptionE.omp_outlined, ptr %17, ptr %14, ptr %18, ptr %12, ptr %16, ptr %11, ptr %62, ptr %8, ptr %63)
  call void @_ZN4ncnn3MatD2Ev(ptr noundef nonnull align 8 dereferenceable(72) %18) #14
  call void @llvm.lifetime.end.p0(i64 72, ptr %18) #14
  call void @llvm.lifetime.end.p0(i64 4, ptr %17) #14
  call void @llvm.lifetime.end.p0(i64 4, ptr %16) #14
  call void @llvm.lifetime.end.p0(i64 4, ptr %15) #14
  call void @llvm.lifetime.end.p0(i64 4, ptr %14) #14
  call void @llvm.lifetime.end.p0(i64 4, ptr %13) #14
  call void @llvm.lifetime.end.p0(i64 4, ptr %12) #14
  call void @llvm.lifetime.end.p0(i64 4, ptr %11) #14
  ret void

64:                                               ; preds = %5
  %65 = landingpad { ptr, i32 }
          cleanup
  %66 = extractvalue { ptr, i32 } %65, 0
  store ptr %66, ptr %19, align 8
  %67 = extractvalue { ptr, i32 } %65, 1
  store i32 %67, ptr %20, align 4
  call void @_ZN4ncnn3MatD2Ev(ptr noundef nonnull align 8 dereferenceable(72) %18) #14
  call void @llvm.lifetime.end.p0(i64 72, ptr %18) #14
  call void @llvm.lifetime.end.p0(i64 4, ptr %17) #14
  call void @llvm.lifetime.end.p0(i64 4, ptr %16) #14
  call void @llvm.lifetime.end.p0(i64 4, ptr %15) #14
  call void @llvm.lifetime.end.p0(i64 4, ptr %14) #14
  call void @llvm.lifetime.end.p0(i64 4, ptr %13) #14
  call void @llvm.lifetime.end.p0(i64 4, ptr %12) #14
  call void @llvm.lifetime.end.p0(i64 4, ptr %11) #14
  br label %68

68:                                               ; preds = %64
  %69 = load ptr, ptr %19, align 8
  %70 = load i32, ptr %20, align 4
  %71 = insertvalue { ptr, i32 } poison, ptr %69, 0
  %72 = insertvalue { ptr, i32 } %71, i32 %70, 1
  resume { ptr, i32 } %72
}